(lp0
S'.'
p1
aS'of'
p2
aS'one'
p3
aS'0'
p4
aS'It is'
p5
aS'in'
p6
ag6
aS'Do not'
p7
aS'The'
p8
aS'1'
p9
aS'country'
p10
aS'on'
p11
aS'Have'
p12
aS'Large'
p13
aS'people'
p14
aS'for'
p15
aS'2'
p16
aS'year'
p17
aS'This'
p18
aS'Months'
p19
aS'With'
p20
aS'Out'
p21
aS'Correct'
p22
aS'Time'
p23
aS'and'
p24
aS'Minute'
p25
aS'hair'
p26
aS'city'
p27
aS'3'
p28
aS'OK'
p29
aS'To'
p30
aS'new'
p31
aS'learn'
p32
aS'industry'
p33
aS'want'
p34
aS'5'
p35
aS'to make'
p36
aS'Rear'
p37
aS'Come'
p38
aS'will'
p39
aS'day'
p40
aS'he'
p41
aS'can'
p42
aS'square'
p43
aS'under'
p44
aS'By'
p45
aS'car'
p46
aS'meeting'
p47
aS'Live'
p48
ag42
aS'through'
p49
aS'Current'
p50
aS'7'
p51
aS'before'
p52
aS'and also'
p53
aS'public'
p54
aS'Green'
p55
aS'high'
p56
aS'6'
p57
ag6
aS'Safe'
p58
aS'4'
p59
aS'many'
p60
aS'They'
p61
aS'share'
p62
ag24
aS'I'
p63
aS'Reason'
p64
aS'Say'
p65
aS'Get'
p66
aS'Family'
p67
aS'military'
p68
aS'team'
p69
aS'its'
p70
aS'long'
p71
aS'field'
p72
aS'the Lord'
p73
aS'law'
p74
aS'unit'
p75
aS'9'
p76
aS'Electric'
p77
aS'with'
p78
aS'table'
p79
ag11
aS'Eye'
p80
aS'Enter'
p81
aS'real'
p82
aS'open'
p83
aS'versus'
p84
aS'8'
p85
aS'Capital'
p86
aS'ratio'
p87
aS'Sex'
p88
aS'use'
p89
aS'this'
p90
aS'most'
p91
aS'set'
p92
aS'thing'
p93
aS'move'
p94
aS'from'
p95
aS'All'
p96
aS'small'
p97
aS'month'
p98
aS'Make'
p99
ag90
aS'but'
p100
aS'degree'
p101
aS'Such as'
p102
aS'all'
p103
aS'turn off'
p104
aS'It'
p105
aS'Report'
p106
aS'outer'
p107
aS'weight'
p108
aS'Scholar'
p109
aS'Are'
p110
aS'force'
p111
aS'child'
p112
ag67
aS'Two'
p113
aS'nice'
p114
aS'Article'
p115
aS'Yield'
p116
aS'machine'
p117
aS'war'
p118
aS'also'
p119
aS'Close'
p120
aS'surface'
p121
aS'price'
p122
aS'Bright'
p123
aS'Department'
p124
aS'body'
p125
aS'Already'
p126
aS'Secondary'
p127
ag49
aS'name'
p128
aS'period'
p129
aS'because'
p130
aS'Remember'
p131
aS'when'
p132
aS'should'
p133
aS'teach'
p134
aS'according to'
p135
aS'situation'
p136
aS'recognize'
p137
ag8
aS'number'
p138
aS'fruit'
p139
aS'type'
p140
aS'point'
p141
aS'Show'
p142
aS'Ten thousand'
p143
aS'three'
p144
aS'the amount'
p145
ag40
aS'hospital'
p146
ag24
aS'sea'
p147
aS'Great'
p148
aS'phase'
p149
aS'system'
p150
aS'cross'
p151
aS'No'
p152
aS'cast'
p153
ag115
aS'Competition'
p154
aS'Road'
p155
aS'Female'
p156
aS'fight'
p157
ag14
aS'gold'
p158
aS'Culture'
p159
aS'That'
p160
ag67
aS'Wait'
p161
aS'official'
p162
aS'more'
p163
ag24
aS'member'
p164
aS'From'
p165
aS'very'
p166
aS'heart'
p167
aS'Location'
p168
aS'yuan'
p169
aS'letter'
p170
aS'C'
p171
aS'between'
p172
aS'network'
p173
aS'certificate'
p174
aS'plus'
p175
aS'hand'
p176
aS'However'
p177
aS'ticket'
p178
aS'go with'
p179
aS'within'
p180
aS'to'
p181
aS'room'
p182
aS'work'
p183
aS'China'
p184
aS'ball'
p185
aS'Educate'
p186
aS'Seed'
p187
aS'Stand'
p188
aS'general'
p189
aS'Start'
p190
aS'Strong'
p191
aS'Area'
p192
aS'level'
p193
aS'mention'
p194
aS'kind'
p195
aS'meaning'
p196
aS'positive'
p197
aS'Prices'
p198
aS'first'
p199
aS'total'
p200
ag65
aS'Reach'
p201
aS'test'
p202
aS'Of'
p203
ag193
aS'take'
p204
ag125
ag181
ag20
ag58
aS'Sri Lanka'
p205
aS'some'
p206
aS'cloth'
p207
aS'hold'
p208
aS'Look'
p209
ag81
aS'Finger'
p210
aS'guide'
p211
aS'meter'
p212
aS'Receive'
p213
aS'pin'
p214
aS'by'
p215
aS'only'
p216
aS'what'
p217
aS'exhibition'
p218
aS'Tell'
p219
aS'Politics'
p220
aS'case'
p221
aS'build'
p222
aS'Technique'
p223
ag34
aS'Disappear'
p224
aS'e'
p225
aS'Return'
p226
aS'Skill'
p227
aS'Item'
p228
aS'Sell'
p229
aS'half'
p230
aS'Tune'
p231
aS'Grandson'
p232
aS'steam'
p233
aS'question'
p234
aS'ask'
p235
aS'no'
p236
aS'grid'
p237
aS'Knot'
p238
aS'buy'
p239
aS'school'
p240
aS'shadow'
p241
ag99
aS'regulation'
p242
aS'solution'
p243
aS'Profit'
p244
aS'increase'
p245
aS'straight'
p246
aS'near'
p247
aS'Business'
p248
aS'A'
p249
aS'Seoul'
p250
ag90
aS'Office'
p251
aS'that'
p252
aS'Regard'
p253
aS'special'
p254
aS'Push'
p255
aS'line'
p256
aS'whole'
p257
aS'Meet'
p258
ag6
aS'Income'
p259
aS'not'
p260
aS'benefit'
p261
aS'or'
p262
aS'station'
p263
aS'Many'
p264
aS'What'
p265
aS'division'
p266
aS'week'
p267
aS'often'
p268
ag112
aS'two'
p269
aS'old'
p270
aS'brand'
p271
ag199
aS'do not'
p272
aS'change'
p273
ag251
aS'interest'
p274
aS'Continue'
p275
aS'crime'
p276
aS'a'
p277
aS'north'
p278
aS'door'
p279
aS'do'
p280
aS'ultra'
p281
aS'Eligible'
p282
aS'Relatively'
p283
aS'selected'
p284
aS'give'
p285
ag150
aS'again'
p286
aS'Build'
p287
aS'Yesterday'
p288
ag273
aS'east'
p289
aS'live'
p290
ag92
aS'star'
p291
aS'Advance'
p292
ag251
aS'Let'
p293
aS'mountain'
p294
ag248
aS'she was'
p295
aS'Military'
p296
aS'rise'
p297
aS'group'
p298
aS'Insurance'
p299
aS'single'
p300
aS'each'
p301
aS'tube'
p302
aS'fast'
p303
aS'research'
p304
aS'l'
p305
aS'class'
p306
aS'pass'
p307
aS'generation'
p308
aS'purchase'
p309
aS'hit'
p310
aS'police'
p311
aS'material'
p312
aS'segment'
p313
aS'air'
p314
aS'plate'
p315
aS'Indeed'
p316
aS'know'
p317
aS'discipline'
p318
aS'Investigate'
p319
aS'collar'
p320
aS'difficult'
p321
aS'Ticket'
p322
aS'still'
p323
aS'king'
p324
aS'low'
p325
aS'Festival'
p326
aS'Rise'
p327
aS'formula'
p328
aS'Situation'
p329
aS'speed'
p330
aS'item'
p331
aS'o'
p332
aS'Create'
p333
aS'sheet'
p334
aS'less'
p335
aS'deep'
p336
aS'play'
p337
aS'Print'
p338
aS'board'
p339
aS'Soldiers'
p340
aS'Journey'
p341
aS'put'
p342
ag306
aS'Couplet'
p343
aS'road'
p344
aS'horse'
p345
aS'approximately'
p346
aS'then'
p347
aS'Fight'
p348
aS'Watch'
p349
aS'already'
p350
aS'Beijing'
p351
aS'Gram'
p352
aS'practice'
p353
aS'begging'
p354
aS'original'
p355
aS'value'
p356
aS'check'
p357
aS'morning'
p358
aS'bomb'
p359
aS'Decide'
p360
aS'condition'
p361
aS'Meter'
p362
aS'world'
p363
aS'Complaint'
p364
aS'negative'
p365
aS'Inter'
p366
aS'Matchmaker'
p367
aS'you'
p368
aS'right'
p369
aS'need'
p370
ag119
aS'D'
p371
aS'press'
p372
aS'Equipment'
p373
aS'Anti'
p374
aS'fee'
p375
aS'flow'
p376
aS'row'
p377
aS'Device'
p378
aS'Assume'
p379
aS'four'
p380
aS'n'
p381
aS'step'
p382
aS'Row'
p383
aS'certain'
p384
aS'Allow'
p385
aS'Belong'
p386
aS'court'
p387
aS'Noticeable'
p388
aS'shape'
p389
aS'i'
p390
ag8
aS'Ginseng'
p391
ag27
aS'root'
p392
aS'excellent'
p393
aS'true'
p394
aS'-bar'
p395
aS'Mark'
p396
aS'non-'
p397
aS'base'
p398
aS'Aid'
p399
aS'Morality'
p400
aS'anti-'
p401
aS'Warship'
p402
ag95
aS'another'
p403
ag74
aS'Theory'
p404
aS'male'
p405
aS'grab'
p406
aS'color'
p407
aS'water'
p408
aS'stop'
p409
ag298
aS'Noon'
p410
aS'promise'
p411
aS'B'
p412
aS'sense'
p413
aS'words'
p414
aS'control'
p415
ag301
aS'soft'
p416
aS'sound'
p417
aS'Victory'
p418
aS'ten'
p419
aS'easy'
p420
aS'Friendly'
p421
aS'go'
p422
aS'foot'
p423
aS'Plan'
p424
aS'wind'
p425
aS'red'
p426
aS'hurt'
p427
aS'ring'
p428
aS'English'
p429
aS'More'
p430
aS'Zhang'
p431
aS'Annals'
p432
aS'Note'
p433
aS'quasi-'
p434
ag63
aS'Love'
p435
aS'Protect'
p436
aS'World'
p437
aS'floor'
p438
aS'too'
p439
aS'Finish'
p440
aS'hope'
p441
aS'lead'
p442
aS'mirror'
p443
aS'dew'
p444
aS'brain'
p445
aS'smell'
p446
aS'eye'
p447
aS'Discuss'
p448
aS'end'
p449
aS'turn'
p450
aS'files'
p451
aS'Part'
p452
aS'even'
p453
aS'clear'
p454
aS'Assorted'
p455
aS'dead'
p456
aS'Follow'
p457
aS'One hundred million'
p458
aS'Expert'
p459
ag216
aS'Collection'
p460
aS'Altogether'
p461
aS'yellow'
p462
aS'fine'
p463
aS'paragraph'
p464
aS'music'
p465
aS'Fives'
p466
aS'Thing'
p467
aS'Center'
p468
aS'must'
p469
aS'season'
p470
aS'Move'
p471
aS'Plum'
p472
aS'forest'
p473
aS'Liu'
p474
aS'pay'
p475
aS'county'
p476
aS'willing'
p477
aS'quality'
p478
aS'harm'
p479
ag138
aS'Draw'
p480
aS'pole'
p481
aS'which is'
p482
ag275
aS'award'
p483
aS'Match'
p484
aS'suitable'
p485
aS'year old'
p486
aS'head'
p487
aS'Put'
p488
ag290
aS'Nan'
p489
ag407
aS'clothes'
p490
aS'complex'
p491
ag103
aS'record'
p492
aS'wheel'
p493
ag202
aS'tax'
p494
ag135
aS'jade'
p495
aS'source'
p496
ag249
aS'a few'
p497
ag373
aS'mouth'
p498
aS'rate'
p499
aS'money'
p500
aS'And'
p501
ag92
aS'EC'
p502
aS'Inferior'
p503
aS'Sun'
p504
aS'early'
p505
aS'P'
p506
aS'Old'
p507
aS'product'
p508
aS'Examine'
p509
aS'beginning'
p510
aS'Image'
p511
aS'effect'
p512
aS'Charge'
p513
aS'Width'
p514
ag15
ag428
aS'see'
p515
aS'Contest'
p516
aS'calendar'
p517
aS'state'
p518
aS'Tropsch'
p519
aS'Assist'
p520
aS'Speech'
p521
ag133
ag263
aS'Zheng'
p522
aS'wisdom'
p523
aS'M'
p524
aS'O'
p525
aS'band'
p526
aS'Commit'
p527
aS'Hu'
p528
aS'Command'
p529
aS'false'
p530
aS'Less'
p531
aS'heat'
p532
aS'Lose'
p533
aS'it'
p534
aS'Frank'
p535
aS'Drawing'
p536
aS'late'
p537
aS'punishment'
p538
aS'Train'
p539
aS'News'
p540
aS'Once'
p541
aS'rule'
p542
a.